

Microchip MPLAB XC8 Assembler V2.50 build 20240725155939 
                                                                                               Mon Oct 21 04:39:17 2024

Microchip MPLAB XC8 C Compiler v2.50 (Free license) build 20240725155939 Og1 
     1                           	processor	12F675
     2                           	pagewidth 120
     3                           	opt	flic
     4                           	psect	cinit,global,class=CODE,space=0,merge=1,delta=2
     5                           	psect	bssBANK0,global,class=BANK0,space=1,delta=1,noexec
     6                           	psect	cstackCOMMON,global,class=COMMON,space=1,delta=1,noexec
     7                           	psect	cstackBANK0,global,class=BANK0,space=1,delta=1,noexec
     8                           	psect	maintext,global,class=CODE,space=0,split=1,delta=2
     9                           	psect	text1,local,class=CODE,space=0,merge=1,delta=2,group=1
    10                           	psect	text2,local,class=CODE,space=0,merge=1,delta=2,group=1
    11                           	psect	text3,local,class=CODE,space=0,merge=1,delta=2
    12                           	psect	text4,local,class=CODE,space=0,merge=1,delta=2
    13                           	psect	text5,local,class=CODE,space=0,merge=1,delta=2
    14                           	psect	intentry,global,class=CODE,space=0,delta=2
    15                           	psect	text6,local,class=CODE,space=0,merge=1,delta=2
    16                           	psect	text7,local,class=CODE,space=0,merge=1,delta=2
    17                           	psect	text8,local,class=CODE,space=0,merge=1,delta=2
    18                           	psect	text9,local,class=CODE,space=0,merge=1,delta=2
    19                           	psect	text10,local,class=CODE,space=0,merge=1,delta=2
    20                           	psect	config,global,abs,ovrld,class=CONFIG,space=4,delta=2,noexec
    21                           	dabs	1,0x5E,2
    22     0000                     
    23                           ; Generated 17/08/2023 GMT
    24                           ; 
    25                           ; Copyright © 2023, Microchip Technology Inc. and its subsidiaries ("Microchip")
    26                           ; All rights reserved.
    27                           ; 
    28                           ; This software is developed by Microchip Technology Inc. and its subsidiaries ("Microch
      +                          ip").
    29                           ; 
    30                           ; Redistribution and use in source and binary forms, with or without modification, are
    31                           ; permitted provided that the following conditions are met:
    32                           ; 
    33                           ;     1. Redistributions of source code must retain the above copyright notice, this lis
      +                          t of
    34                           ;        conditions and the following disclaimer.
    35                           ; 
    36                           ;     2. Redistributions in binary form must reproduce the above copyright notice, this 
      +                          list
    37                           ;        of conditions and the following disclaimer in the documentation and/or other
    38                           ;        materials provided with the distribution. Publication is not required when
    39                           ;        this file is used in an embedded application.
    40                           ; 
    41                           ;     3. Microchip's name may not be used to endorse or promote products derived from th
      +                          is
    42                           ;        software without specific prior written permission.
    43                           ; 
    44                           ; THIS SOFTWARE IS PROVIDED BY MICROCHIP "AS IS" AND ANY EXPRESS OR IMPLIED WARRANTIES,
    45                           ; INCLUDING, BUT NOT LIMITED TO, THE IMPLIED WARRANTIES OF MERCHANTABILITY AND FITNESS F
      +                          OR
    46                           ; PURPOSE ARE DISCLAIMED.  IN NO EVENT SHALL MICROCHIP BE LIABLE FOR ANY DIRECT, INDIREC
      +                          T,
    47                           ; INCIDENTAL, SPECIAL, EXEMPLARY, OR CONSEQUENTIAL DAMAGES (INCLUDING BUT NOT LIMITED TO
    48                           ; PROCUREMENT OF SUBSTITUTE GOODS OR SERVICES; LOSS OF USE, DATA OR PROFITS; OR BUSINESS
    49                           ; INTERRUPTION) HOWSOEVER CAUSED AND ON ANY THEORY OF LIABILITY, WHETHER IN CONTRACT, ST
      +                          RICT
    50                           ; LIABILITY, OR TORT (INCLUDING NEGLIGENCE OR OTHERWISE) ARISING IN ANY WAY OUT OF THE U
      +                          SE OF
    51                           ; THIS SOFTWARE, EVEN IF ADVISED OF THE POSSIBILITY OF SUCH DAMAGE.
    52                           ; 
    53                           ; 
    54                           ; Code-generator required, PIC12F675 Definitions
    55                           ; 
    56                           ; SFR Addresses
    57     0004                     fsr             equ	4
    58     0004                     fsr0            equ	4
    59     0000                     indf            equ	0
    60     0000                     indf0           equ	0
    61     0002                     pc              equ	2
    62     0002                     pcl             equ	2
    63     000A                     pclath          equ	10
    64     0003                     status          equ	3
    65     0000                     INDF            equ	0	;# 
    66     0001                     TMR0            equ	1	;# 
    67     0002                     PCL             equ	2	;# 
    68     0003                     STATUS          equ	3	;# 
    69     0004                     FSR             equ	4	;# 
    70     0005                     GPIO            equ	5	;# 
    71     000A                     PCLATH          equ	10	;# 
    72     000B                     INTCON          equ	11	;# 
    73     000C                     PIR1            equ	12	;# 
    74     000E                     TMR1            equ	14	;# 
    75     000E                     TMR1L           equ	14	;# 
    76     000F                     TMR1H           equ	15	;# 
    77     0010                     T1CON           equ	16	;# 
    78     0019                     CMCON           equ	25	;# 
    79     001E                     ADRESH          equ	30	;# 
    80     001F                     ADCON0          equ	31	;# 
    81     0081                     OPTION_REG      equ	129	;# 
    82     0085                     TRISIO          equ	133	;# 
    83     008C                     PIE1            equ	140	;# 
    84     008E                     PCON            equ	142	;# 
    85     0090                     OSCCAL          equ	144	;# 
    86     0095                     WPU             equ	149	;# 
    87     0096                     IOC             equ	150	;# 
    88     0096                     IOCB            equ	150	;# 
    89     0099                     VRCON           equ	153	;# 
    90     009A                     EEDATA          equ	154	;# 
    91     009A                     EEDAT           equ	154	;# 
    92     009B                     EEADR           equ	155	;# 
    93     009C                     EECON1          equ	156	;# 
    94     009D                     EECON2          equ	157	;# 
    95     009E                     ADRESL          equ	158	;# 
    96     009F                     ANSEL           equ	159	;# 
    97     0000                     INDF            equ	0	;# 
    98     0001                     TMR0            equ	1	;# 
    99     0002                     PCL             equ	2	;# 
   100     0003                     STATUS          equ	3	;# 
   101     0004                     FSR             equ	4	;# 
   102     0005                     GPIO            equ	5	;# 
   103     000A                     PCLATH          equ	10	;# 
   104     000B                     INTCON          equ	11	;# 
   105     000C                     PIR1            equ	12	;# 
   106     000E                     TMR1            equ	14	;# 
   107     000E                     TMR1L           equ	14	;# 
   108     000F                     TMR1H           equ	15	;# 
   109     0010                     T1CON           equ	16	;# 
   110     0019                     CMCON           equ	25	;# 
   111     001E                     ADRESH          equ	30	;# 
   112     001F                     ADCON0          equ	31	;# 
   113     0081                     OPTION_REG      equ	129	;# 
   114     0085                     TRISIO          equ	133	;# 
   115     008C                     PIE1            equ	140	;# 
   116     008E                     PCON            equ	142	;# 
   117     0090                     OSCCAL          equ	144	;# 
   118     0095                     WPU             equ	149	;# 
   119     0096                     IOC             equ	150	;# 
   120     0096                     IOCB            equ	150	;# 
   121     0099                     VRCON           equ	153	;# 
   122     009A                     EEDATA          equ	154	;# 
   123     009A                     EEDAT           equ	154	;# 
   124     009B                     EEADR           equ	155	;# 
   125     009C                     EECON1          equ	156	;# 
   126     009D                     EECON2          equ	157	;# 
   127     009E                     ADRESL          equ	158	;# 
   128     009F                     ANSEL           equ	159	;# 
   129     000E                     _TMR1           set	14
   130     000C                     _PIR1           set	12
   131     001E                     _ADRESH         set	30
   132     0005                     _GPIO           set	5
   133     0010                     _T1CON          set	16
   134     001F                     _ADCON0         set	31
   135     000B                     _INTCON         set	11
   136     009E                     _ADRESL         set	158
   137     008C                     _PIE1           set	140
   138     0081                     _OPTION_REG     set	129
   139     009F                     _ANSEL          set	159
   140     0095                     _WPU            set	149
   141     0085                     _TRISIO         set	133
   142                           
   143                           	psect	cinit
   144     000C                     start_initialization:	
   145                           ; #config settings
   146                           
   147     000C                     __initialization:
   148                           
   149                           ; Clear objects allocated to BANK0
   150     000C  1283               	bcf	3,5	;RP0=0, select bank0
   151     000D  01D2               	clrf	__pbssBANK0& (0+127)
   152     000E  01D3               	clrf	(__pbssBANK0+1)& (0+127)
   153     000F  01D4               	clrf	(__pbssBANK0+2)& (0+127)
   154     0010  01D5               	clrf	(__pbssBANK0+3)& (0+127)
   155     0011  01D6               	clrf	(__pbssBANK0+4)& (0+127)
   156     0012  01D7               	clrf	(__pbssBANK0+5)& (0+127)
   157     0013  01D8               	clrf	(__pbssBANK0+6)& (0+127)
   158     0014  01D9               	clrf	(__pbssBANK0+7)& (0+127)
   159     0015  01DA               	clrf	(__pbssBANK0+8)& (0+127)
   160     0016  01DB               	clrf	(__pbssBANK0+9)& (0+127)
   161     0017  01DC               	clrf	(__pbssBANK0+10)& (0+127)
   162     0018                     end_of_initialization:	
   163                           ;End of C runtime variable initialization code
   164                           
   165     0018                     __end_of__initialization:
   166     0018  0183               	clrf	3
   167     0019  281A               	ljmp	_main	;jump to C main() function
   168                           
   169                           	psect	bssBANK0
   170     0052                     __pbssBANK0:
   171     0052                     _LastSensorInValue:
   172     0052                     	ds	2
   173     0054                     _SensorInValue:
   174     0054                     	ds	2
   175     0056                     _flag:
   176     0056                     	ds	1
   177     0057                     _DebounceCounter:
   178     0057                     	ds	1
   179     0058                     _DispenserOn:
   180     0058                     	ds	1
   181     0059                     _ADCStatus:
   182     0059                     	ds	1
   183     005A                     _DioState:
   184     005A                     	ds	1
   185     005B                     _PotInValue:
   186     005B                     	ds	2
   187                           
   188                           	psect	cstackCOMMON
   189     0000                     __pcstackCOMMON:
   190     0000                     ??_InitAll:
   191     0000                     ??_Timer1_interrupt:	
   192                           ; 1 bytes @ 0x0
   193                           
   194     0000                     ??_ADC_interrupt:	
   195                           ; 1 bytes @ 0x0
   196                           
   197     0000                     ??_NegativeEdge:	
   198                           ; 1 bytes @ 0x0
   199                           
   200                           
   201                           	psect	cstackBANK0
   202     0020                     __pcstackBANK0:	
   203                           ; 1 bytes @ 0x0
   204                           
   205     0020                     ?_InitAll:
   206     0020                     ?_Timer1_interrupt:	
   207                           ; 1 bytes @ 0x0
   208                           
   209     0020                     ?_ADC_interrupt:	
   210                           ; 1 bytes @ 0x0
   211                           
   212     0020                     ?_NegativeEdge:	
   213                           ; 1 bytes @ 0x0
   214                           
   215     0020                     ?_main:	
   216                           ; 1 bytes @ 0x0
   217                           
   218     0020                     ?_ADC_StartConversion:	
   219                           ; 1 bytes @ 0x0
   220                           
   221     0020                     ?_ISR:	
   222                           ; 1 bytes @ 0x0
   223                           
   224     0020                     ?_AdcReadResult:	
   225                           ; 1 bytes @ 0x0
   226                           
   227     0020                     ??_ADC_StartConversion:	
   228                           ; 2 bytes @ 0x0
   229                           
   230                           
   231                           ; 1 bytes @ 0x0
   232     0020                     	ds	1
   233     0021                     ADC_StartConversion@channel:
   234                           
   235                           ; 1 bytes @ 0x1
   236     0021                     	ds	1
   237     0022                     ??_AdcReadResult:
   238                           
   239                           ; 1 bytes @ 0x2
   240     0022                     	ds	7
   241     0029                     ??_ISR:
   242                           
   243                           ; 1 bytes @ 0x9
   244     0029                     	ds	2
   245     002B                     ?_DioPinWrite:
   246     002B                     ?___lmul:	
   247                           ; 1 bytes @ 0xB
   248                           
   249     002B                     DioPinWrite@state:	
   250                           ; 4 bytes @ 0xB
   251                           
   252     002B                     ___lmul@multiplier:	
   253                           ; 1 bytes @ 0xB
   254                           
   255                           
   256                           ; 4 bytes @ 0xB
   257     002B                     	ds	1
   258     002C                     ??_DioPinWrite:
   259                           
   260                           ; 1 bytes @ 0xC
   261     002C                     	ds	1
   262     002D                     DioPinWrite@pinNumber:
   263                           
   264                           ; 1 bytes @ 0xD
   265     002D                     	ds	2
   266     002F                     ___lmul@multiplicand:
   267                           
   268                           ; 4 bytes @ 0xF
   269     002F                     	ds	4
   270     0033                     ??___lmul:
   271                           
   272                           ; 1 bytes @ 0x13
   273     0033                     	ds	1
   274     0034                     ___lmul@product:
   275                           
   276                           ; 4 bytes @ 0x14
   277     0034                     	ds	4
   278     0038                     ?___lldiv:
   279     0038                     ___lldiv@divisor:	
   280                           ; 4 bytes @ 0x18
   281                           
   282                           
   283                           ; 4 bytes @ 0x18
   284     0038                     	ds	4
   285     003C                     ___lldiv@dividend:
   286                           
   287                           ; 4 bytes @ 0x1C
   288     003C                     	ds	4
   289     0040                     ??___lldiv:
   290                           
   291                           ; 1 bytes @ 0x20
   292     0040                     	ds	1
   293     0041                     ___lldiv@quotient:
   294                           
   295                           ; 4 bytes @ 0x21
   296     0041                     	ds	4
   297     0045                     ___lldiv@counter:
   298                           
   299                           ; 1 bytes @ 0x25
   300     0045                     	ds	1
   301     0046                     ??_main:
   302                           
   303                           ; 1 bytes @ 0x26
   304     0046                     	ds	4
   305     004A                     _main$695:
   306                           
   307                           ; 4 bytes @ 0x2A
   308     004A                     	ds	4
   309     004E                     main@Counter:
   310                           
   311                           ; 4 bytes @ 0x2E
   312     004E                     	ds	4
   313                           
   314                           	psect	maintext
   315     001A                     __pmaintext:	
   316 ;;
   317 ;;Main: autosize = 0, tempsize = 4, incstack = 0, save=0
   318 ;;
   319 ;; *************** function _main *****************
   320 ;; Defined at:
   321 ;;		line 104 in file "main.c"
   322 ;; Parameters:    Size  Location     Type
   323 ;;		None
   324 ;; Auto vars:     Size  Location     Type
   325 ;;  Counter         4   46[BANK0 ] unsigned long 
   326 ;; Return value:  Size  Location     Type
   327 ;;                  1    wreg      void 
   328 ;; Registers used:
   329 ;;		wreg, status,2, status,0, pclath, cstack
   330 ;; Tracked objects:
   331 ;;		On entry : B00/0
   332 ;;		On exit  : 0/0
   333 ;;		Unchanged: 0/0
   334 ;; Data sizes:     COMMON   BANK0
   335 ;;      Params:         0       0
   336 ;;      Locals:         0       8
   337 ;;      Temps:          0       4
   338 ;;      Totals:         0      12
   339 ;;Total ram usage:       12 bytes
   340 ;; Hardware stack levels required when called: 4
   341 ;; This function calls:
   342 ;;		_DioPinWrite
   343 ;;		_InitAll
   344 ;;		___lldiv
   345 ;;		___lmul
   346 ;; This function is called by:
   347 ;;		Startup code after reset
   348 ;; This function uses a non-reentrant model
   349 ;;
   350                           
   351     001A                     _main:	
   352                           ;psect for function _main
   353                           
   354     001A                     l938:	
   355                           ;incstack = 0
   356                           ; Regs used in _main: [wreg+status,2+status,0+pclath+cstack]
   357                           
   358                           
   359                           ;main.c: 105:     InitAll();
   360     001A  2208               	fcall	_InitAll
   361     001B                     l940:
   362                           
   363                           ;main.c: 107:         if (DispenserOn &&( DebounceCounter > ((100)/(10)) )){
   364     001B  1283               	bcf	3,5	;RP0=0, select bank0
   365     001C  0858               	movf	_DispenserOn,w
   366     001D  1903               	btfsc	3,2
   367     001E  2820               	goto	u601
   368     001F  2821               	goto	u600
   369     0020                     u601:
   370     0020  281B               	goto	l940
   371     0021                     u600:
   372     0021                     l942:
   373     0021  300B               	movlw	11
   374     0022  0257               	subwf	_DebounceCounter,w
   375     0023  1C03               	skipc
   376     0024  2826               	goto	u611
   377     0025  2827               	goto	u610
   378     0026                     u611:
   379     0026  281B               	goto	l940
   380     0027                     u610:
   381     0027                     l944:
   382                           
   383                           ;main.c: 108:                 DioPinWrite(1, 1);
   384     0027  01AB               	clrf	DioPinWrite@state
   385     0028  0AAB               	incf	DioPinWrite@state,f
   386     0029  3001               	movlw	1
   387     002A  21A3               	fcall	_DioPinWrite
   388                           
   389                           ;main.c: 109:                 uint32_t Counter = 5 * ((200 * ((uint32_t) PotInValue )) /
      +                           1023);
   390     002B  3000               	movlw	0
   391     002C  1283               	bcf	3,5	;RP0=0, select bank0
   392     002D  00BB               	movwf	___lldiv@divisor+3
   393     002E  3000               	movlw	0
   394     002F  00BA               	movwf	___lldiv@divisor+2
   395     0030  3003               	movlw	3
   396     0031  00B9               	movwf	___lldiv@divisor+1
   397     0032  30FF               	movlw	255
   398     0033  00B8               	movwf	___lldiv@divisor
   399     0034  085B               	movf	_PotInValue,w
   400     0035  00AB               	movwf	___lmul@multiplier
   401     0036  085C               	movf	_PotInValue+1,w
   402     0037  00AC               	movwf	___lmul@multiplier+1
   403     0038  01AD               	clrf	___lmul@multiplier+2
   404     0039  01AE               	clrf	___lmul@multiplier+3
   405     003A  3000               	movlw	0
   406     003B  00B2               	movwf	___lmul@multiplicand+3
   407     003C  3000               	movlw	0
   408     003D  00B1               	movwf	___lmul@multiplicand+2
   409     003E  3000               	movlw	0
   410     003F  00B0               	movwf	___lmul@multiplicand+1
   411     0040  30C8               	movlw	200
   412     0041  00AF               	movwf	___lmul@multiplicand
   413     0042  215C               	fcall	___lmul
   414     0043  1283               	bcf	3,5	;RP0=0, select bank0
   415     0044  082E               	movf	?___lmul+3,w
   416     0045  00BF               	movwf	___lldiv@dividend+3
   417     0046  082D               	movf	?___lmul+2,w
   418     0047  00BE               	movwf	___lldiv@dividend+2
   419     0048  082C               	movf	?___lmul+1,w
   420     0049  00BD               	movwf	___lldiv@dividend+1
   421     004A  082B               	movf	?___lmul,w
   422     004B  00BC               	movwf	___lldiv@dividend
   423     004C  20AA               	fcall	___lldiv
   424     004D  1283               	bcf	3,5	;RP0=0, select bank0
   425     004E  083B               	movf	?___lldiv+3,w
   426     004F  00CD               	movwf	_main$695+3
   427     0050  083A               	movf	?___lldiv+2,w
   428     0051  00CC               	movwf	_main$695+2
   429     0052  0839               	movf	?___lldiv+1,w
   430     0053  00CB               	movwf	_main$695+1
   431     0054  0838               	movf	?___lldiv,w
   432     0055  00CA               	movwf	_main$695
   433                           
   434                           ;main.c: 109:                 uint32_t Counter = 5 * ((200 * ((uint32_t) PotInValue )) /
      +                           1023);
   435     0056  084D               	movf	_main$695+3,w
   436     0057  00AE               	movwf	___lmul@multiplier+3
   437     0058  084C               	movf	_main$695+2,w
   438     0059  00AD               	movwf	___lmul@multiplier+2
   439     005A  084B               	movf	_main$695+1,w
   440     005B  00AC               	movwf	___lmul@multiplier+1
   441     005C  084A               	movf	_main$695,w
   442     005D  00AB               	movwf	___lmul@multiplier
   443     005E  3000               	movlw	0
   444     005F  00B2               	movwf	___lmul@multiplicand+3
   445     0060  3000               	movlw	0
   446     0061  00B1               	movwf	___lmul@multiplicand+2
   447     0062  3000               	movlw	0
   448     0063  00B0               	movwf	___lmul@multiplicand+1
   449     0064  3005               	movlw	5
   450     0065  00AF               	movwf	___lmul@multiplicand
   451     0066  215C               	fcall	___lmul
   452     0067  1283               	bcf	3,5	;RP0=0, select bank0
   453     0068  082E               	movf	?___lmul+3,w
   454     0069  00D1               	movwf	main@Counter+3
   455     006A  082D               	movf	?___lmul+2,w
   456     006B  00D0               	movwf	main@Counter+2
   457     006C  082C               	movf	?___lmul+1,w
   458     006D  00CF               	movwf	main@Counter+1
   459     006E  082B               	movf	?___lmul,w
   460     006F  00CE               	movwf	main@Counter
   461                           
   462                           ;main.c: 110:                 for (;(Counter > 0) && DispenserOn ;Counter--){
   463     0070  2896               	goto	l61
   464     0071                     l946:
   465                           
   466                           ;main.c: 111:                     _delay((unsigned long)((5)*(4000000/4000.0)));
   467     0071  3007               	movlw	7
   468     0072  00C7               	movwf	??_main+1
   469     0073  307D               	movlw	125
   470     0074  00C6               	movwf	??_main
   471     0075                     u677:
   472     0075  0BC6               	decfsz	??_main,f
   473     0076  2875               	goto	u677
   474     0077  0BC7               	decfsz	??_main+1,f
   475     0078  2875               	goto	u677
   476                           
   477                           ;main.c: 112:                 }
   478     0079  3001               	movlw	1
   479     007A  1283               	bcf	3,5	;RP0=0, select bank0
   480     007B  00C6               	movwf	??_main
   481     007C  3000               	movlw	0
   482     007D  00C7               	movwf	??_main+1
   483     007E  3000               	movlw	0
   484     007F  00C8               	movwf	??_main+2
   485     0080  3000               	movlw	0
   486     0081  00C9               	movwf	??_main+3
   487     0082  0846               	movf	??_main,w
   488     0083  02CE               	subwf	main@Counter,f
   489     0084  0847               	movf	??_main+1,w
   490     0085  1C03               	skipc
   491     0086  0F47               	incfsz	??_main+1,w
   492     0087  2889               	goto	u625
   493     0088  288A               	goto	u626
   494     0089                     u625:
   495     0089  02CF               	subwf	main@Counter+1,f
   496     008A                     u626:
   497     008A  0848               	movf	??_main+2,w
   498     008B  1C03               	skipc
   499     008C  0F48               	incfsz	??_main+2,w
   500     008D  288F               	goto	u627
   501     008E  2890               	goto	u628
   502     008F                     u627:
   503     008F  02D0               	subwf	main@Counter+2,f
   504     0090                     u628:
   505     0090  0849               	movf	??_main+3,w
   506     0091  1C03               	skipc
   507     0092  0F49               	incfsz	??_main+3,w
   508     0093  2895               	goto	u629
   509     0094  2896               	goto	u620
   510     0095                     u629:
   511     0095  02D1               	subwf	main@Counter+3,f
   512     0096                     u620:
   513     0096                     l61:
   514     0096  0851               	movf	main@Counter+3,w
   515     0097  0450               	iorwf	main@Counter+2,w
   516     0098  044F               	iorwf	main@Counter+1,w
   517     0099  044E               	iorwf	main@Counter,w
   518     009A  1903               	skipnz
   519     009B  289D               	goto	u631
   520     009C  289E               	goto	u630
   521     009D                     u631:
   522     009D  28A3               	goto	l950
   523     009E                     u630:
   524     009E                     l948:
   525     009E  0858               	movf	_DispenserOn,w
   526     009F  1D03               	btfss	3,2
   527     00A0  28A2               	goto	u641
   528     00A1  28A3               	goto	u640
   529     00A2                     u641:
   530     00A2  2871               	goto	l946
   531     00A3                     u640:
   532     00A3                     l950:
   533                           
   534                           ;main.c: 113:                 DioPinWrite(1, 0);
   535     00A3  01AB               	clrf	DioPinWrite@state
   536     00A4  3001               	movlw	1
   537     00A5  21A3               	fcall	_DioPinWrite
   538     00A6                     l952:
   539                           
   540                           ;main.c: 114:                 DispenserOn = 0 ;
   541     00A6  1283               	bcf	3,5	;RP0=0, select bank0
   542     00A7  01D8               	clrf	_DispenserOn
   543     00A8  281B               	goto	l940
   544     00A9  280B               	ljmp	start
   545     00AA                     __end_of_main:
   546                           
   547                           	psect	text1
   548     015C                     __ptext1:	
   549 ;; *************** function ___lmul *****************
   550 ;; Defined at:
   551 ;;		line 15 in file "C:\Program Files\Microchip\xc8\v2.50\pic\sources\c99\common\Umul32.c"
   552 ;; Parameters:    Size  Location     Type
   553 ;;  multiplier      4   11[BANK0 ] unsigned long 
   554 ;;  multiplicand    4   15[BANK0 ] unsigned long 
   555 ;; Auto vars:     Size  Location     Type
   556 ;;  product         4   20[BANK0 ] unsigned long 
   557 ;; Return value:  Size  Location     Type
   558 ;;                  4   11[BANK0 ] unsigned long 
   559 ;; Registers used:
   560 ;;		wreg, status,2, status,0
   561 ;; Tracked objects:
   562 ;;		On entry : 0/0
   563 ;;		On exit  : 0/0
   564 ;;		Unchanged: 0/0
   565 ;; Data sizes:     COMMON   BANK0
   566 ;;      Params:         0       8
   567 ;;      Locals:         0       4
   568 ;;      Temps:          0       1
   569 ;;      Totals:         0      13
   570 ;;Total ram usage:       13 bytes
   571 ;; Hardware stack levels used: 1
   572 ;; Hardware stack levels required when called: 3
   573 ;; This function calls:
   574 ;;		Nothing
   575 ;; This function is called by:
   576 ;;		_main
   577 ;; This function uses a non-reentrant model
   578 ;;
   579                           
   580     015C                     ___lmul:	
   581                           ;psect for function ___lmul
   582                           
   583     015C                     l900:	
   584                           ;incstack = 0
   585                           ; Regs used in ___lmul: [wreg+status,2+status,0]
   586                           
   587     015C  3000               	movlw	0
   588     015D  1283               	bcf	3,5	;RP0=0, select bank0
   589     015E  00B7               	movwf	___lmul@product+3
   590     015F  3000               	movlw	0
   591     0160  00B6               	movwf	___lmul@product+2
   592     0161  3000               	movlw	0
   593     0162  00B5               	movwf	___lmul@product+1
   594     0163  3000               	movlw	0
   595     0164  00B4               	movwf	___lmul@product
   596     0165                     l902:
   597     0165  1C2B               	btfss	___lmul@multiplier,0
   598     0166  2968               	goto	u481
   599     0167  2969               	goto	u480
   600     0168                     u481:
   601     0168  2980               	goto	l906
   602     0169                     u480:
   603     0169                     l904:
   604     0169  082F               	movf	___lmul@multiplicand,w
   605     016A  07B4               	addwf	___lmul@product,f
   606     016B  0830               	movf	___lmul@multiplicand+1,w
   607     016C  1103               	clrz
   608     016D  1803               	skipnc
   609     016E  3E01               	addlw	1
   610     016F  1903               	skipnz
   611     0170  2972               	goto	u491
   612     0171  07B5               	addwf	___lmul@product+1,f
   613     0172                     u491:
   614     0172  0831               	movf	___lmul@multiplicand+2,w
   615     0173  1103               	clrz
   616     0174  1803               	skipnc
   617     0175  3E01               	addlw	1
   618     0176  1903               	skipnz
   619     0177  2979               	goto	u492
   620     0178  07B6               	addwf	___lmul@product+2,f
   621     0179                     u492:
   622     0179  0832               	movf	___lmul@multiplicand+3,w
   623     017A  1103               	clrz
   624     017B  1803               	skipnc
   625     017C  3E01               	addlw	1
   626     017D  1903               	skipnz
   627     017E  2980               	goto	u493
   628     017F  07B7               	addwf	___lmul@product+3,f
   629     0180                     u493:
   630     0180                     l906:
   631     0180  3001               	movlw	1
   632     0181  00B3               	movwf	??___lmul
   633     0182                     u505:
   634     0182  1003               	clrc
   635     0183  0DAF               	rlf	___lmul@multiplicand,f
   636     0184  0DB0               	rlf	___lmul@multiplicand+1,f
   637     0185  0DB1               	rlf	___lmul@multiplicand+2,f
   638     0186  0DB2               	rlf	___lmul@multiplicand+3,f
   639     0187  0BB3               	decfsz	??___lmul,f
   640     0188  2982               	goto	u505
   641     0189                     l908:
   642     0189  3001               	movlw	1
   643     018A                     u515:
   644     018A  1003               	clrc
   645     018B  0CAE               	rrf	___lmul@multiplier+3,f
   646     018C  0CAD               	rrf	___lmul@multiplier+2,f
   647     018D  0CAC               	rrf	___lmul@multiplier+1,f
   648     018E  0CAB               	rrf	___lmul@multiplier,f
   649     018F  3EFF               	addlw	-1
   650     0190  1D03               	skipz
   651     0191  298A               	goto	u515
   652     0192  082E               	movf	___lmul@multiplier+3,w
   653     0193  042D               	iorwf	___lmul@multiplier+2,w
   654     0194  042C               	iorwf	___lmul@multiplier+1,w
   655     0195  042B               	iorwf	___lmul@multiplier,w
   656     0196  1D03               	skipz
   657     0197  2999               	goto	u521
   658     0198  299A               	goto	u520
   659     0199                     u521:
   660     0199  2965               	goto	l902
   661     019A                     u520:
   662     019A                     l910:
   663     019A  0837               	movf	___lmul@product+3,w
   664     019B  00AE               	movwf	?___lmul+3
   665     019C  0836               	movf	___lmul@product+2,w
   666     019D  00AD               	movwf	?___lmul+2
   667     019E  0835               	movf	___lmul@product+1,w
   668     019F  00AC               	movwf	?___lmul+1
   669     01A0  0834               	movf	___lmul@product,w
   670     01A1  00AB               	movwf	?___lmul
   671     01A2                     l212:
   672     01A2  0008               	return
   673     01A3                     __end_of___lmul:
   674                           
   675                           	psect	text2
   676     00AA                     __ptext2:	
   677 ;; *************** function ___lldiv *****************
   678 ;; Defined at:
   679 ;;		line 5 in file "C:\Program Files\Microchip\xc8\v2.50\pic\sources\c99\common\__lldiv.c"
   680 ;; Parameters:    Size  Location     Type
   681 ;;  divisor         4   24[BANK0 ] unsigned long 
   682 ;;  dividend        4   28[BANK0 ] unsigned long 
   683 ;; Auto vars:     Size  Location     Type
   684 ;;  quotient        4   33[BANK0 ] unsigned long 
   685 ;;  counter         1   37[BANK0 ] unsigned char 
   686 ;; Return value:  Size  Location     Type
   687 ;;                  4   24[BANK0 ] unsigned long 
   688 ;; Registers used:
   689 ;;		wreg, status,2, status,0
   690 ;; Tracked objects:
   691 ;;		On entry : 0/0
   692 ;;		On exit  : 0/0
   693 ;;		Unchanged: 0/0
   694 ;; Data sizes:     COMMON   BANK0
   695 ;;      Params:         0       8
   696 ;;      Locals:         0       5
   697 ;;      Temps:          0       1
   698 ;;      Totals:         0      14
   699 ;;Total ram usage:       14 bytes
   700 ;; Hardware stack levels used: 1
   701 ;; Hardware stack levels required when called: 3
   702 ;; This function calls:
   703 ;;		Nothing
   704 ;; This function is called by:
   705 ;;		_main
   706 ;; This function uses a non-reentrant model
   707 ;;
   708                           
   709     00AA                     ___lldiv:	
   710                           ;psect for function ___lldiv
   711                           
   712     00AA                     l914:	
   713                           ;incstack = 0
   714                           ; Regs used in ___lldiv: [wreg+status,2+status,0]
   715                           
   716     00AA  3000               	movlw	0
   717     00AB  1283               	bcf	3,5	;RP0=0, select bank0
   718     00AC  00C4               	movwf	___lldiv@quotient+3
   719     00AD  3000               	movlw	0
   720     00AE  00C3               	movwf	___lldiv@quotient+2
   721     00AF  3000               	movlw	0
   722     00B0  00C2               	movwf	___lldiv@quotient+1
   723     00B1  3000               	movlw	0
   724     00B2  00C1               	movwf	___lldiv@quotient
   725     00B3  083B               	movf	___lldiv@divisor+3,w
   726     00B4  043A               	iorwf	___lldiv@divisor+2,w
   727     00B5  0439               	iorwf	___lldiv@divisor+1,w
   728     00B6  0438               	iorwf	___lldiv@divisor,w
   729     00B7  1903               	skipnz
   730     00B8  28BA               	goto	u531
   731     00B9  28BB               	goto	u530
   732     00BA                     u531:
   733     00BA  2906               	goto	l934
   734     00BB                     u530:
   735     00BB                     l916:
   736     00BB  3001               	movlw	1
   737     00BC  00C5               	movwf	___lldiv@counter
   738     00BD  28C9               	goto	l920
   739     00BE                     l918:
   740     00BE  3001               	movlw	1
   741     00BF  00C0               	movwf	??___lldiv
   742     00C0                     u545:
   743     00C0  1003               	clrc
   744     00C1  0DB8               	rlf	___lldiv@divisor,f
   745     00C2  0DB9               	rlf	___lldiv@divisor+1,f
   746     00C3  0DBA               	rlf	___lldiv@divisor+2,f
   747     00C4  0DBB               	rlf	___lldiv@divisor+3,f
   748     00C5  0BC0               	decfsz	??___lldiv,f
   749     00C6  28C0               	goto	u545
   750     00C7  3001               	movlw	1
   751     00C8  07C5               	addwf	___lldiv@counter,f
   752     00C9                     l920:
   753     00C9  1FBB               	btfss	___lldiv@divisor+3,7
   754     00CA  28CC               	goto	u551
   755     00CB  28CD               	goto	u550
   756     00CC                     u551:
   757     00CC  28BE               	goto	l918
   758     00CD                     u550:
   759     00CD                     l922:
   760     00CD  3001               	movlw	1
   761     00CE  00C0               	movwf	??___lldiv
   762     00CF                     u565:
   763     00CF  1003               	clrc
   764     00D0  0DC1               	rlf	___lldiv@quotient,f
   765     00D1  0DC2               	rlf	___lldiv@quotient+1,f
   766     00D2  0DC3               	rlf	___lldiv@quotient+2,f
   767     00D3  0DC4               	rlf	___lldiv@quotient+3,f
   768     00D4  0BC0               	decfsz	??___lldiv,f
   769     00D5  28CF               	goto	u565
   770     00D6                     l924:
   771     00D6  083B               	movf	___lldiv@divisor+3,w
   772     00D7  023F               	subwf	___lldiv@dividend+3,w
   773     00D8  1D03               	skipz
   774     00D9  28E4               	goto	u575
   775     00DA  083A               	movf	___lldiv@divisor+2,w
   776     00DB  023E               	subwf	___lldiv@dividend+2,w
   777     00DC  1D03               	skipz
   778     00DD  28E4               	goto	u575
   779     00DE  0839               	movf	___lldiv@divisor+1,w
   780     00DF  023D               	subwf	___lldiv@dividend+1,w
   781     00E0  1D03               	skipz
   782     00E1  28E4               	goto	u575
   783     00E2  0838               	movf	___lldiv@divisor,w
   784     00E3  023C               	subwf	___lldiv@dividend,w
   785     00E4                     u575:
   786     00E4  1C03               	skipc
   787     00E5  28E7               	goto	u571
   788     00E6  28E8               	goto	u570
   789     00E7                     u571:
   790     00E7  28F7               	goto	l930
   791     00E8                     u570:
   792     00E8                     l926:
   793     00E8  0838               	movf	___lldiv@divisor,w
   794     00E9  02BC               	subwf	___lldiv@dividend,f
   795     00EA  0839               	movf	___lldiv@divisor+1,w
   796     00EB  1C03               	skipc
   797     00EC  0F39               	incfsz	___lldiv@divisor+1,w
   798     00ED  02BD               	subwf	___lldiv@dividend+1,f
   799     00EE  083A               	movf	___lldiv@divisor+2,w
   800     00EF  1C03               	skipc
   801     00F0  0F3A               	incfsz	___lldiv@divisor+2,w
   802     00F1  02BE               	subwf	___lldiv@dividend+2,f
   803     00F2  083B               	movf	___lldiv@divisor+3,w
   804     00F3  1C03               	skipc
   805     00F4  0F3B               	incfsz	___lldiv@divisor+3,w
   806     00F5  02BF               	subwf	___lldiv@dividend+3,f
   807     00F6                     l928:
   808     00F6  1441               	bsf	___lldiv@quotient,0
   809     00F7                     l930:
   810     00F7  3001               	movlw	1
   811     00F8                     u585:
   812     00F8  1003               	clrc
   813     00F9  0CBB               	rrf	___lldiv@divisor+3,f
   814     00FA  0CBA               	rrf	___lldiv@divisor+2,f
   815     00FB  0CB9               	rrf	___lldiv@divisor+1,f
   816     00FC  0CB8               	rrf	___lldiv@divisor,f
   817     00FD  3EFF               	addlw	-1
   818     00FE  1D03               	skipz
   819     00FF  28F8               	goto	u585
   820     0100                     l932:
   821     0100  3001               	movlw	1
   822     0101  02C5               	subwf	___lldiv@counter,f
   823     0102  1D03               	btfss	3,2
   824     0103  2905               	goto	u591
   825     0104  2906               	goto	u590
   826     0105                     u591:
   827     0105  28CD               	goto	l922
   828     0106                     u590:
   829     0106                     l934:
   830     0106  0844               	movf	___lldiv@quotient+3,w
   831     0107  00BB               	movwf	?___lldiv+3
   832     0108  0843               	movf	___lldiv@quotient+2,w
   833     0109  00BA               	movwf	?___lldiv+2
   834     010A  0842               	movf	___lldiv@quotient+1,w
   835     010B  00B9               	movwf	?___lldiv+1
   836     010C  0841               	movf	___lldiv@quotient,w
   837     010D  00B8               	movwf	?___lldiv
   838     010E                     l234:
   839     010E  0008               	return
   840     010F                     __end_of___lldiv:
   841                           
   842                           	psect	text3
   843     0208                     __ptext3:	
   844 ;; *************** function _InitAll *****************
   845 ;; Defined at:
   846 ;;		line 121 in file "main.c"
   847 ;; Parameters:    Size  Location     Type
   848 ;;		None
   849 ;; Auto vars:     Size  Location     Type
   850 ;;		None
   851 ;; Return value:  Size  Location     Type
   852 ;;                  1    wreg      void 
   853 ;; Registers used:
   854 ;;		wreg, status,2, status,0
   855 ;; Tracked objects:
   856 ;;		On entry : 0/0
   857 ;;		On exit  : 0/0
   858 ;;		Unchanged: 0/0
   859 ;; Data sizes:     COMMON   BANK0
   860 ;;      Params:         0       0
   861 ;;      Locals:         0       0
   862 ;;      Temps:          0       0
   863 ;;      Totals:         0       0
   864 ;;Total ram usage:        0 bytes
   865 ;; Hardware stack levels used: 1
   866 ;; Hardware stack levels required when called: 3
   867 ;; This function calls:
   868 ;;		Nothing
   869 ;; This function is called by:
   870 ;;		_main
   871 ;; This function uses a non-reentrant model
   872 ;;
   873                           
   874     0208                     _InitAll:	
   875                           ;psect for function _InitAll
   876                           
   877     0208                     l822:	
   878                           ;incstack = 0
   879                           ; Regs used in _InitAll: [wreg+status,2+status,0]
   880                           
   881                           
   882                           ;main.c: 130: TRISIO = 0b00011001;
   883     0208  3019               	movlw	25
   884     0209  1683               	bsf	3,5	;RP0=1, select bank1
   885     020A  0085               	movwf	5	;volatile
   886     020B                     l824:
   887                           
   888                           ;main.c: 140: WPU = 0b00000000;
   889     020B  0195               	clrf	21	;volatile
   890     020C                     l826:
   891                           
   892                           ;main.c: 152: INTCON = 0b11000000;
   893     020C  30C0               	movlw	192
   894     020D  008B               	movwf	11	;volatile
   895     020E                     l828:
   896                           
   897                           ;main.c: 162: ADCON0 = 0b00000001;
   898     020E  3001               	movlw	1
   899     020F  1283               	bcf	3,5	;RP0=0, select bank0
   900     0210  009F               	movwf	31	;volatile
   901     0211                     l830:
   902                           
   903                           ;main.c: 172: ANSEL = 0b00011001;
   904     0211  3019               	movlw	25
   905     0212  1683               	bsf	3,5	;RP0=1, select bank1
   906     0213  009F               	movwf	31	;volatile
   907                           
   908                           ;main.c: 182: OPTION_REG = 0b00000000;
   909     0214  0181               	clrf	1	;volatile
   910     0215                     l832:
   911                           
   912                           ;main.c: 192: T1CON = 0b00110101;
   913     0215  3035               	movlw	53
   914     0216  1283               	bcf	3,5	;RP0=0, select bank0
   915     0217  0090               	movwf	16	;volatile
   916     0218                     l834:
   917                           
   918                           ;main.c: 194: T1CON &= ~0b00000001 ; TMR1 = (65535 - 1250); T1CON |= 0b00000001 ;;
   919     0218  30FE               	movlw	254
   920     0219  0590               	andwf	16,f	;volatile
   921     021A                     l836:
   922     021A  30FB               	movlw	251
   923     021B  008F               	movwf	15	;volatile
   924     021C  301D               	movlw	29
   925     021D  008E               	movwf	14	;volatile
   926     021E                     l838:
   927     021E  1410               	bsf	16,0	;volatile
   928     021F                     l840:
   929                           
   930                           ;main.c: 205: PIE1 = 0b01000001;
   931     021F  3041               	movlw	65
   932     0220  1683               	bsf	3,5	;RP0=1, select bank1
   933     0221  008C               	movwf	12	;volatile
   934     0222                     l71:
   935     0222  0008               	return
   936     0223                     __end_of_InitAll:
   937                           
   938                           	psect	text4
   939     01A3                     __ptext4:	
   940 ;; *************** function _DioPinWrite *****************
   941 ;; Defined at:
   942 ;;		line 208 in file "main.c"
   943 ;; Parameters:    Size  Location     Type
   944 ;;  pinNumber       1    wreg     unsigned char 
   945 ;;  state           1   11[BANK0 ] unsigned char 
   946 ;; Auto vars:     Size  Location     Type
   947 ;;  pinNumber       1   13[BANK0 ] unsigned char 
   948 ;; Return value:  Size  Location     Type
   949 ;;                  1    wreg      void 
   950 ;; Registers used:
   951 ;;		wreg, status,2, status,0
   952 ;; Tracked objects:
   953 ;;		On entry : 0/0
   954 ;;		On exit  : 0/0
   955 ;;		Unchanged: 0/0
   956 ;; Data sizes:     COMMON   BANK0
   957 ;;      Params:         0       1
   958 ;;      Locals:         0       1
   959 ;;      Temps:          0       1
   960 ;;      Totals:         0       3
   961 ;;Total ram usage:        3 bytes
   962 ;; Hardware stack levels used: 1
   963 ;; Hardware stack levels required when called: 3
   964 ;; This function calls:
   965 ;;		Nothing
   966 ;; This function is called by:
   967 ;;		_main
   968 ;; This function uses a non-reentrant model
   969 ;;
   970                           
   971     01A3                     _DioPinWrite:	
   972                           ;psect for function _DioPinWrite
   973                           
   974                           
   975                           ;incstack = 0
   976                           ; Regs used in _DioPinWrite: [wreg+status,2+status,0]
   977                           ;DioPinWrite@pinNumber stored from wreg
   978     01A3  1283               	bcf	3,5	;RP0=0, select bank0
   979     01A4  00AD               	movwf	DioPinWrite@pinNumber
   980     01A5                     l842:
   981                           
   982                           ;main.c: 209:     if (state == 1) {
   983     01A5  032B               	decf	DioPinWrite@state,w
   984     01A6  1D03               	btfss	3,2
   985     01A7  29A9               	goto	u371
   986     01A8  29AA               	goto	u370
   987     01A9                     u371:
   988     01A9  29B6               	goto	l846
   989     01AA                     u370:
   990     01AA                     l844:
   991                           
   992                           ;main.c: 210:         DioState |= (1 << pinNumber);
   993     01AA  3001               	movlw	1
   994     01AB  00AC               	movwf	??_DioPinWrite
   995     01AC  0A2D               	incf	DioPinWrite@pinNumber,w
   996     01AD  29B0               	goto	u384
   997     01AE                     u385:
   998     01AE  1003               	clrc
   999     01AF  0DAC               	rlf	??_DioPinWrite,f
  1000     01B0                     u384:
  1001     01B0  3EFF               	addlw	-1
  1002     01B1  1D03               	skipz
  1003     01B2  29AE               	goto	u385
  1004     01B3  082C               	movf	??_DioPinWrite,w
  1005     01B4  04DA               	iorwf	_DioState,f
  1006                           
  1007                           ;main.c: 211:     } else {
  1008     01B5  29C2               	goto	l848
  1009     01B6                     l846:
  1010                           
  1011                           ;main.c: 212:         DioState &= ~(1 << pinNumber);
  1012     01B6  3001               	movlw	1
  1013     01B7  00AC               	movwf	??_DioPinWrite
  1014     01B8  0A2D               	incf	DioPinWrite@pinNumber,w
  1015     01B9  29BC               	goto	u394
  1016     01BA                     u395:
  1017     01BA  1003               	clrc
  1018     01BB  0DAC               	rlf	??_DioPinWrite,f
  1019     01BC                     u394:
  1020     01BC  3EFF               	addlw	-1
  1021     01BD  1D03               	skipz
  1022     01BE  29BA               	goto	u395
  1023     01BF  082C               	movf	??_DioPinWrite,w
  1024     01C0  3AFF               	xorlw	255
  1025     01C1  05DA               	andwf	_DioState,f
  1026     01C2                     l848:
  1027                           
  1028                           ;main.c: 214:     GPIO = DioState;
  1029     01C2  085A               	movf	_DioState,w
  1030     01C3  0085               	movwf	5	;volatile
  1031     01C4                     l76:
  1032     01C4  0008               	return
  1033     01C5                     __end_of_DioPinWrite:
  1034                           
  1035                           	psect	text5
  1036     0223                     __ptext5:	
  1037 ;; *************** function _ISR *****************
  1038 ;; Defined at:
  1039 ;;		line 232 in file "main.c"
  1040 ;; Parameters:    Size  Location     Type
  1041 ;;		None
  1042 ;; Auto vars:     Size  Location     Type
  1043 ;;		None
  1044 ;; Return value:  Size  Location     Type
  1045 ;;                  1    wreg      void 
  1046 ;; Registers used:
  1047 ;;		wreg, status,2, status,0, pclath, cstack
  1048 ;; Tracked objects:
  1049 ;;		On entry : 0/0
  1050 ;;		On exit  : 0/0
  1051 ;;		Unchanged: 0/0
  1052 ;; Data sizes:     COMMON   BANK0
  1053 ;;      Params:         0       0
  1054 ;;      Locals:         0       0
  1055 ;;      Temps:          0       2
  1056 ;;      Totals:         0       2
  1057 ;;Total ram usage:        2 bytes
  1058 ;; Hardware stack levels used: 1
  1059 ;; Hardware stack levels required when called: 2
  1060 ;; This function calls:
  1061 ;;		_ADC_interrupt
  1062 ;;		_Timer1_interrupt
  1063 ;; This function is called by:
  1064 ;;		Interrupt level 1
  1065 ;; This function uses a non-reentrant model
  1066 ;;
  1067                           
  1068     0223                     _ISR:	
  1069                           ;psect for function _ISR
  1070                           
  1071     0223                     i1l954:
  1072                           
  1073                           ;main.c: 233:     if (PIR1 & 0b00000001) {
  1074     0223  1C0C               	btfss	12,0	;volatile
  1075     0224  2A26               	goto	u65_21
  1076     0225  2A27               	goto	u65_20
  1077     0226                     u65_21:
  1078     0226  2A2C               	goto	i1l87
  1079     0227                     u65_20:
  1080     0227                     i1l956:
  1081                           
  1082                           ;main.c: 234:         Timer1_interrupt ();
  1083     0227  210F               	fcall	_Timer1_interrupt
  1084     0228                     i1l958:
  1085                           
  1086                           ;main.c: 236:         PIR1 &= 0b11111110;
  1087     0228  30FE               	movlw	254
  1088     0229  1283               	bcf	3,5	;RP0=0, select bank0
  1089     022A  058C               	andwf	12,f	;volatile
  1090                           
  1091                           ;main.c: 238:     }
  1092     022B  2A34               	goto	i1l91
  1093     022C                     i1l87:	
  1094                           ;main.c: 240:     else if (PIR1 & 0b01000000) {
  1095                           
  1096     022C  1F0C               	btfss	12,6	;volatile
  1097     022D  2A2F               	goto	u66_21
  1098     022E  2A30               	goto	u66_20
  1099     022F                     u66_21:
  1100     022F  2A34               	goto	i1l91
  1101     0230                     u66_20:
  1102     0230                     i1l960:
  1103                           
  1104                           ;main.c: 241:         ADC_interrupt ();
  1105     0230  21C5               	fcall	_ADC_interrupt
  1106     0231                     i1l962:
  1107                           
  1108                           ;main.c: 242:         PIR1 &= 0b10111111;
  1109     0231  30BF               	movlw	191
  1110     0232  1283               	bcf	3,5	;RP0=0, select bank0
  1111     0233  058C               	andwf	12,f	;volatile
  1112     0234                     i1l91:	
  1113                           ;main.c: 243:         }
  1114                           
  1115     0234  082A               	movf	??_ISR+1,w
  1116     0235  008A               	movwf	10
  1117     0236  0E29               	swapf	??_ISR,w
  1118     0237  0083               	movwf	3
  1119     0238  0EDE               	swapf	btemp,f
  1120     0239  0E5E               	swapf	btemp,w
  1121     023A  0009               	retfie
  1122     023B                     __end_of_ISR:
  1123                           
  1124                           	psect	intentry
  1125     0004                     __pintentry:	
  1126                           ;incstack = 0
  1127                           ; Regs used in _ISR: [wreg+status,2+status,0+pclath+cstack]
  1128                           
  1129     0004                     interrupt_function:
  1130     005E                     saved_w         set	btemp
  1131     0004  00DE               	movwf	btemp
  1132     0005  0E03               	swapf	3,w
  1133     0006  1283               	bcf	3,5	;RP0=0, select bank0
  1134     0007  00A9               	movwf	??_ISR
  1135     0008  080A               	movf	10,w
  1136     0009  00AA               	movwf	??_ISR+1
  1137     000A  2A23               	ljmp	_ISR
  1138                           
  1139                           	psect	text6
  1140     010F                     __ptext6:	
  1141 ;; *************** function _Timer1_interrupt *****************
  1142 ;; Defined at:
  1143 ;;		line 247 in file "main.c"
  1144 ;; Parameters:    Size  Location     Type
  1145 ;;		None
  1146 ;; Auto vars:     Size  Location     Type
  1147 ;;		None
  1148 ;; Return value:  Size  Location     Type
  1149 ;;                  1    wreg      void 
  1150 ;; Registers used:
  1151 ;;		wreg, status,2, status,0, pclath, cstack
  1152 ;; Tracked objects:
  1153 ;;		On entry : 0/0
  1154 ;;		On exit  : 0/0
  1155 ;;		Unchanged: 0/0
  1156 ;; Data sizes:     COMMON   BANK0
  1157 ;;      Params:         0       0
  1158 ;;      Locals:         0       0
  1159 ;;      Temps:          0       0
  1160 ;;      Totals:         0       0
  1161 ;;Total ram usage:        0 bytes
  1162 ;; Hardware stack levels used: 1
  1163 ;; Hardware stack levels required when called: 1
  1164 ;; This function calls:
  1165 ;;		_ADC_StartConversion
  1166 ;;		_NegativeEdge
  1167 ;; This function is called by:
  1168 ;;		_ISR
  1169 ;; This function uses a non-reentrant model
  1170 ;;
  1171                           
  1172     010F                     _Timer1_interrupt:	
  1173                           ;psect for function _Timer1_interrupt
  1174                           
  1175     010F                     i1l850:	
  1176                           ;incstack = 0
  1177                           ; Regs used in _Timer1_interrupt: [wreg+status,2+status,0+pclath+cstack]
  1178                           
  1179                           
  1180                           ;main.c: 248:     T1CON &= ~0b00000001 ; TMR1 = (65535 - 1250); T1CON |= 0b00000001 ;;
  1181     010F  30FE               	movlw	254
  1182     0110  1283               	bcf	3,5	;RP0=0, select bank0
  1183     0111  0590               	andwf	16,f	;volatile
  1184     0112                     i1l852:
  1185     0112  30FB               	movlw	251
  1186     0113  008F               	movwf	15	;volatile
  1187     0114  301D               	movlw	29
  1188     0115  008E               	movwf	14	;volatile
  1189     0116                     i1l854:
  1190     0116  1410               	bsf	16,0	;volatile
  1191     0117                     i1l856:
  1192                           
  1193                           ;main.c: 249:     if(flag < 100){
  1194     0117  3064               	movlw	100
  1195     0118  0256               	subwf	_flag,w
  1196     0119  1803               	skipnc
  1197     011A  291C               	goto	u40_21
  1198     011B  291D               	goto	u40_20
  1199     011C                     u40_21:
  1200     011C  2925               	goto	i1l94
  1201     011D                     u40_20:
  1202     011D                     i1l858:
  1203                           
  1204                           ;main.c: 250:             ADCStatus = 0x02;
  1205     011D  3002               	movlw	2
  1206     011E  00D9               	movwf	_ADCStatus
  1207     011F                     i1l860:
  1208                           
  1209                           ;main.c: 251:             ADC_StartConversion(3);
  1210     011F  3003               	movlw	3
  1211     0120  223B               	fcall	_ADC_StartConversion
  1212     0121                     i1l862:
  1213                           
  1214                           ;main.c: 252:             flag ++;
  1215     0121  3001               	movlw	1
  1216     0122  1283               	bcf	3,5	;RP0=0, select bank0
  1217     0123  07D6               	addwf	_flag,f
  1218                           
  1219                           ;main.c: 253:     } else {
  1220     0124  292B               	goto	i1l868
  1221     0125                     i1l94:
  1222                           
  1223                           ;main.c: 254:             ADCStatus = 0x01;
  1224     0125  3001               	movlw	1
  1225     0126  00D9               	movwf	_ADCStatus
  1226     0127                     i1l864:
  1227                           
  1228                           ;main.c: 255:             ADC_StartConversion(0);
  1229     0127  3000               	movlw	0
  1230     0128  223B               	fcall	_ADC_StartConversion
  1231     0129                     i1l866:
  1232                           
  1233                           ;main.c: 256:             flag = 0;
  1234     0129  1283               	bcf	3,5	;RP0=0, select bank0
  1235     012A  01D6               	clrf	_flag
  1236     012B                     i1l868:
  1237                           
  1238                           ;main.c: 259:     if(LastSensorInValue > 256 && SensorInValue < 256 ){
  1239     012B  3001               	movlw	1
  1240     012C  0253               	subwf	_LastSensorInValue+1,w
  1241     012D  3001               	movlw	1
  1242     012E  1903               	skipnz
  1243     012F  0252               	subwf	_LastSensorInValue,w
  1244     0130  1C03               	skipc
  1245     0131  2933               	goto	u41_21
  1246     0132  2934               	goto	u41_20
  1247     0133                     u41_21:
  1248     0133  293E               	goto	i1l874
  1249     0134                     u41_20:
  1250     0134                     i1l870:
  1251     0134  3001               	movlw	1
  1252     0135  0255               	subwf	_SensorInValue+1,w
  1253     0136  3000               	movlw	0
  1254     0137  1903               	skipnz
  1255     0138  0254               	subwf	_SensorInValue,w
  1256     0139  1803               	skipnc
  1257     013A  293C               	goto	u42_21
  1258     013B  293D               	goto	u42_20
  1259     013C                     u42_21:
  1260     013C  293E               	goto	i1l874
  1261     013D                     u42_20:
  1262     013D                     i1l872:
  1263                           
  1264                           ;main.c: 260:         NegativeEdge();
  1265     013D  224C               	fcall	_NegativeEdge
  1266     013E                     i1l874:
  1267                           
  1268                           ;main.c: 263:     if(DispenserOn && SensorInValue < 256 ){
  1269     013E  1283               	bcf	3,5	;RP0=0, select bank0
  1270     013F  0858               	movf	_DispenserOn,w
  1271     0140  1903               	btfsc	3,2
  1272     0141  2943               	goto	u43_21
  1273     0142  2944               	goto	u43_20
  1274     0143                     u43_21:
  1275     0143  2950               	goto	i1l880
  1276     0144                     u43_20:
  1277     0144                     i1l876:
  1278     0144  3001               	movlw	1
  1279     0145  0255               	subwf	_SensorInValue+1,w
  1280     0146  3000               	movlw	0
  1281     0147  1903               	skipnz
  1282     0148  0254               	subwf	_SensorInValue,w
  1283     0149  1803               	skipnc
  1284     014A  294C               	goto	u44_21
  1285     014B  294D               	goto	u44_20
  1286     014C                     u44_21:
  1287     014C  2950               	goto	i1l880
  1288     014D                     u44_20:
  1289     014D                     i1l878:
  1290                           
  1291                           ;main.c: 264:         DebounceCounter++;
  1292     014D  3001               	movlw	1
  1293     014E  07D7               	addwf	_DebounceCounter,f
  1294                           
  1295                           ;main.c: 265:     } else {
  1296     014F  2951               	goto	i1l882
  1297     0150                     i1l880:
  1298                           
  1299                           ;main.c: 266:         DebounceCounter = 0;
  1300     0150  01D7               	clrf	_DebounceCounter
  1301     0151                     i1l882:
  1302                           
  1303                           ;main.c: 268:     if( SensorInValue > 256 ){
  1304     0151  3001               	movlw	1
  1305     0152  0255               	subwf	_SensorInValue+1,w
  1306     0153  3001               	movlw	1
  1307     0154  1903               	skipnz
  1308     0155  0254               	subwf	_SensorInValue,w
  1309     0156  1C03               	skipc
  1310     0157  2959               	goto	u45_21
  1311     0158  295A               	goto	u45_20
  1312     0159                     u45_21:
  1313     0159  295B               	goto	i1l100
  1314     015A                     u45_20:
  1315     015A                     i1l884:
  1316                           
  1317                           ;main.c: 269:         DispenserOn = 0;
  1318     015A  01D8               	clrf	_DispenserOn
  1319     015B                     i1l100:
  1320     015B  0008               	return
  1321     015C                     __end_of_Timer1_interrupt:
  1322                           
  1323                           	psect	text7
  1324     024C                     __ptext7:	
  1325 ;; *************** function _NegativeEdge *****************
  1326 ;; Defined at:
  1327 ;;		line 289 in file "main.c"
  1328 ;; Parameters:    Size  Location     Type
  1329 ;;		None
  1330 ;; Auto vars:     Size  Location     Type
  1331 ;;		None
  1332 ;; Return value:  Size  Location     Type
  1333 ;;                  1    wreg      void 
  1334 ;; Registers used:
  1335 ;;		wreg, status,2, status,0
  1336 ;; Tracked objects:
  1337 ;;		On entry : 0/0
  1338 ;;		On exit  : 0/0
  1339 ;;		Unchanged: 0/0
  1340 ;; Data sizes:     COMMON   BANK0
  1341 ;;      Params:         0       0
  1342 ;;      Locals:         0       0
  1343 ;;      Temps:          0       0
  1344 ;;      Totals:         0       0
  1345 ;;Total ram usage:        0 bytes
  1346 ;; Hardware stack levels used: 1
  1347 ;; This function calls:
  1348 ;;		Nothing
  1349 ;; This function is called by:
  1350 ;;		_Timer1_interrupt
  1351 ;; This function uses a non-reentrant model
  1352 ;;
  1353                           
  1354     024C                     _NegativeEdge:	
  1355                           ;psect for function _NegativeEdge
  1356                           
  1357     024C                     i1l818:	
  1358                           ;incstack = 0
  1359                           ; Regs used in _NegativeEdge: [wreg+status,2+status,0]
  1360                           
  1361                           
  1362                           ;main.c: 290:     if(DispenserOn){
  1363     024C  1283               	bcf	3,5	;RP0=0, select bank0
  1364     024D  0858               	movf	_DispenserOn,w
  1365     024E  1903               	btfsc	3,2
  1366     024F  2A51               	goto	u36_21
  1367     0250  2A52               	goto	u36_20
  1368     0251                     u36_21:
  1369     0251  2A54               	goto	i1l110
  1370     0252                     u36_20:
  1371     0252                     i1l820:
  1372                           
  1373                           ;main.c: 291:         DispenserOn = 0;
  1374     0252  01D8               	clrf	_DispenserOn
  1375                           
  1376                           ;main.c: 292:     } else {
  1377     0253  2A56               	goto	i1l112
  1378     0254                     i1l110:
  1379                           
  1380                           ;main.c: 293:         DispenserOn = 1;
  1381     0254  3001               	movlw	1
  1382     0255  00D8               	movwf	_DispenserOn
  1383     0256                     i1l112:
  1384     0256  0008               	return
  1385     0257                     __end_of_NegativeEdge:
  1386                           
  1387                           	psect	text8
  1388     023B                     __ptext8:	
  1389 ;; *************** function _ADC_StartConversion *****************
  1390 ;; Defined at:
  1391 ;;		line 217 in file "main.c"
  1392 ;; Parameters:    Size  Location     Type
  1393 ;;  channel         1    wreg     unsigned char 
  1394 ;; Auto vars:     Size  Location     Type
  1395 ;;  channel         1    1[BANK0 ] unsigned char 
  1396 ;; Return value:  Size  Location     Type
  1397 ;;                  1    wreg      void 
  1398 ;; Registers used:
  1399 ;;		wreg, status,2, status,0
  1400 ;; Tracked objects:
  1401 ;;		On entry : 0/0
  1402 ;;		On exit  : 0/0
  1403 ;;		Unchanged: 0/0
  1404 ;; Data sizes:     COMMON   BANK0
  1405 ;;      Params:         0       0
  1406 ;;      Locals:         0       1
  1407 ;;      Temps:          0       1
  1408 ;;      Totals:         0       2
  1409 ;;Total ram usage:        2 bytes
  1410 ;; Hardware stack levels used: 1
  1411 ;; This function calls:
  1412 ;;		Nothing
  1413 ;; This function is called by:
  1414 ;;		_Timer1_interrupt
  1415 ;; This function uses a non-reentrant model
  1416 ;;
  1417                           
  1418     023B                     _ADC_StartConversion:	
  1419                           ;psect for function _ADC_StartConversion
  1420                           
  1421                           
  1422                           ;incstack = 0
  1423                           ; Regs used in _ADC_StartConversion: [wreg+status,2+status,0]
  1424                           ;ADC_StartConversion@channel stored from wreg
  1425     023B  1283               	bcf	3,5	;RP0=0, select bank0
  1426     023C  00A1               	movwf	ADC_StartConversion@channel
  1427     023D                     i1l810:
  1428                           
  1429                           ;main.c: 219:     ADCON0 &= 0b11110011;
  1430     023D  30F3               	movlw	243
  1431     023E  059F               	andwf	31,f	;volatile
  1432                           
  1433                           ;main.c: 221:     ADCON0 |= (channel << 2);
  1434     023F  0821               	movf	ADC_StartConversion@channel,w	;volatile
  1435     0240  00A0               	movwf	??_ADC_StartConversion
  1436     0241  3001               	movlw	1
  1437     0242                     u34_25:
  1438     0242  1003               	clrc
  1439     0243  0DA0               	rlf	??_ADC_StartConversion,f
  1440     0244  3EFF               	addlw	-1
  1441     0245  1D03               	skipz
  1442     0246  2A42               	goto	u34_25
  1443     0247  1003               	clrc
  1444     0248  0D20               	rlf	??_ADC_StartConversion,w
  1445     0249  049F               	iorwf	31,f	;volatile
  1446     024A                     i1l812:
  1447                           
  1448                           ;main.c: 223:     ADCON0 |= (1 << 1);
  1449     024A  149F               	bsf	31,1	;volatile
  1450     024B                     i1l79:
  1451     024B  0008               	return
  1452     024C                     __end_of_ADC_StartConversion:
  1453                           
  1454                           	psect	text9
  1455     01C5                     __ptext9:	
  1456 ;; *************** function _ADC_interrupt *****************
  1457 ;; Defined at:
  1458 ;;		line 274 in file "main.c"
  1459 ;; Parameters:    Size  Location     Type
  1460 ;;		None
  1461 ;; Auto vars:     Size  Location     Type
  1462 ;;		None
  1463 ;; Return value:  Size  Location     Type
  1464 ;;                  1    wreg      void 
  1465 ;; Registers used:
  1466 ;;		wreg, status,2, status,0, pclath, cstack
  1467 ;; Tracked objects:
  1468 ;;		On entry : 0/0
  1469 ;;		On exit  : 0/0
  1470 ;;		Unchanged: 0/0
  1471 ;; Data sizes:     COMMON   BANK0
  1472 ;;      Params:         0       0
  1473 ;;      Locals:         0       0
  1474 ;;      Temps:          0       0
  1475 ;;      Totals:         0       0
  1476 ;;Total ram usage:        0 bytes
  1477 ;; Hardware stack levels used: 1
  1478 ;; Hardware stack levels required when called: 1
  1479 ;; This function calls:
  1480 ;;		_AdcReadResult
  1481 ;; This function is called by:
  1482 ;;		_ISR
  1483 ;; This function uses a non-reentrant model
  1484 ;;
  1485                           
  1486     01C5                     _ADC_interrupt:	
  1487                           ;psect for function _ADC_interrupt
  1488                           
  1489     01C5                     i1l886:	
  1490                           ;incstack = 0
  1491                           ; Regs used in _ADC_interrupt: [wreg+status,2+status,0+pclath+cstack]
  1492                           
  1493                           
  1494                           ;main.c: 275:         if(ADCStatus == 0x02){
  1495     01C5  3002               	movlw	2
  1496     01C6  1283               	bcf	3,5	;RP0=0, select bank0
  1497     01C7  0659               	xorwf	_ADCStatus,w
  1498     01C8  1D03               	btfss	3,2
  1499     01C9  29CB               	goto	u46_21
  1500     01CA  29CC               	goto	u46_20
  1501     01CB                     u46_21:
  1502     01CB  29D7               	goto	i1l892
  1503     01CC                     u46_20:
  1504     01CC                     i1l888:
  1505                           
  1506                           ;main.c: 276:                 LastSensorInValue = SensorInValue;
  1507     01CC  0855               	movf	_SensorInValue+1,w
  1508     01CD  00D3               	movwf	_LastSensorInValue+1
  1509     01CE  0854               	movf	_SensorInValue,w
  1510     01CF  00D2               	movwf	_LastSensorInValue
  1511     01D0                     i1l890:
  1512                           
  1513                           ;main.c: 277:                 SensorInValue = AdcReadResult();
  1514     01D0  21E7               	fcall	_AdcReadResult
  1515     01D1  1283               	bcf	3,5	;RP0=0, select bank0
  1516     01D2  0821               	movf	?_AdcReadResult+1,w
  1517     01D3  00D5               	movwf	_SensorInValue+1
  1518     01D4  0820               	movf	?_AdcReadResult,w
  1519     01D5  00D4               	movwf	_SensorInValue
  1520                           
  1521                           ;main.c: 278:         }
  1522     01D6  29E4               	goto	i1l898
  1523     01D7                     i1l892:
  1524     01D7  0359               	decf	_ADCStatus,w
  1525     01D8  1D03               	btfss	3,2
  1526     01D9  29DB               	goto	u47_21
  1527     01DA  29DC               	goto	u47_20
  1528     01DB                     u47_21:
  1529     01DB  29E3               	goto	i1l896
  1530     01DC                     u47_20:
  1531     01DC                     i1l894:
  1532                           
  1533                           ;main.c: 280:             PotInValue = AdcReadResult();
  1534     01DC  21E7               	fcall	_AdcReadResult
  1535     01DD  1283               	bcf	3,5	;RP0=0, select bank0
  1536     01DE  0821               	movf	?_AdcReadResult+1,w
  1537     01DF  00DC               	movwf	_PotInValue+1
  1538     01E0  0820               	movf	?_AdcReadResult,w
  1539     01E1  00DB               	movwf	_PotInValue
  1540                           
  1541                           ;main.c: 281:         }
  1542     01E2  29E4               	goto	i1l898
  1543     01E3                     i1l896:
  1544                           
  1545                           ;main.c: 283:             AdcReadResult();
  1546     01E3  21E7               	fcall	_AdcReadResult
  1547     01E4                     i1l898:
  1548                           
  1549                           ;main.c: 285:         ADCStatus = 0x00;
  1550     01E4  1283               	bcf	3,5	;RP0=0, select bank0
  1551     01E5  01D9               	clrf	_ADCStatus
  1552     01E6                     i1l107:
  1553     01E6  0008               	return
  1554     01E7                     __end_of_ADC_interrupt:
  1555                           
  1556                           	psect	text10
  1557     01E7                     __ptext10:	
  1558 ;; *************** function _AdcReadResult *****************
  1559 ;; Defined at:
  1560 ;;		line 226 in file "main.c"
  1561 ;; Parameters:    Size  Location     Type
  1562 ;;		None
  1563 ;; Auto vars:     Size  Location     Type
  1564 ;;		None
  1565 ;; Return value:  Size  Location     Type
  1566 ;;                  2    0[BANK0 ] unsigned short 
  1567 ;; Registers used:
  1568 ;;		wreg, status,2, status,0
  1569 ;; Tracked objects:
  1570 ;;		On entry : 0/0
  1571 ;;		On exit  : 0/0
  1572 ;;		Unchanged: 0/0
  1573 ;; Data sizes:     COMMON   BANK0
  1574 ;;      Params:         0       2
  1575 ;;      Locals:         0       0
  1576 ;;      Temps:          0       7
  1577 ;;      Totals:         0       9
  1578 ;;Total ram usage:        9 bytes
  1579 ;; Hardware stack levels used: 1
  1580 ;; This function calls:
  1581 ;;		Nothing
  1582 ;; This function is called by:
  1583 ;;		_ADC_interrupt
  1584 ;; This function uses a non-reentrant model
  1585 ;;
  1586                           
  1587     01E7                     _AdcReadResult:	
  1588                           ;psect for function _AdcReadResult
  1589                           
  1590     01E7                     i1l814:	
  1591                           ;incstack = 0
  1592                           ; Regs used in _AdcReadResult: [wreg+status,2+status,0]
  1593                           
  1594                           
  1595                           ;main.c: 227:     return (uint16_t)((ADRESH << 2) | (ADRESL >> 6));
  1596     01E7  1683               	bsf	3,5	;RP0=1, select bank1
  1597     01E8  081E               	movf	30,w	;volatile
  1598     01E9  1283               	bcf	3,5	;RP0=0, select bank0
  1599     01EA  00A2               	movwf	??_AdcReadResult
  1600     01EB  3006               	movlw	6
  1601     01EC                     u35_25:
  1602     01EC  1003               	clrc
  1603     01ED  0CA2               	rrf	??_AdcReadResult,f
  1604     01EE  3EFF               	addlw	-1
  1605     01EF  1D03               	skipz
  1606     01F0  29EC               	goto	u35_25
  1607     01F1  0822               	movf	??_AdcReadResult,w
  1608     01F2  00A3               	movwf	??_AdcReadResult+1
  1609     01F3  01A4               	clrf	??_AdcReadResult+2
  1610     01F4  081E               	movf	30,w	;volatile
  1611     01F5  00A5               	movwf	??_AdcReadResult+3
  1612     01F6  01A6               	clrf	??_AdcReadResult+4
  1613     01F7  1003               	clrc
  1614     01F8  0DA5               	rlf	??_AdcReadResult+3,f
  1615     01F9  0DA6               	rlf	??_AdcReadResult+4,f
  1616     01FA  1003               	clrc
  1617     01FB  0DA5               	rlf	??_AdcReadResult+3,f
  1618     01FC  0DA6               	rlf	??_AdcReadResult+4,f
  1619     01FD  0823               	movf	??_AdcReadResult+1,w
  1620     01FE  0425               	iorwf	??_AdcReadResult+3,w
  1621     01FF  00A7               	movwf	??_AdcReadResult+5
  1622     0200  0824               	movf	??_AdcReadResult+2,w
  1623     0201  0426               	iorwf	??_AdcReadResult+4,w
  1624     0202  00A8               	movwf	??_AdcReadResult+6
  1625     0203  0827               	movf	??_AdcReadResult+5,w
  1626     0204  00A0               	movwf	?_AdcReadResult
  1627     0205  0828               	movf	??_AdcReadResult+6,w
  1628     0206  00A1               	movwf	?_AdcReadResult+1
  1629     0207                     i1l82:
  1630     0207  0008               	return
  1631     0208                     __end_of_AdcReadResult:
  1632     0000                     ___latbits      equ	0
  1633     005E                     btemp           set	94	;btemp
  1634     005E                     wtemp0          set	94
  1635                           
  1636                           	psect	config
  1637                           
  1638                           ;Config register CONFIG @ 0x2007
  1639                           ;	Oscillator Selection bits
  1640                           ;	FOSC = INTRCIO, INTOSC oscillator: I/O function on GP4/OSC2/CLKOUT pin, I/O function o
      +                          n GP5/OSC1/CLKIN
  1641                           ;	Watchdog Timer Enable bit
  1642                           ;	WDTE = OFF, WDT disabled
  1643                           ;	Power-Up Timer Enable bit
  1644                           ;	PWRTE = OFF, PWRT disabled
  1645                           ;	GP3/MCLR pin function select
  1646                           ;	MCLRE = OFF, GP3/MCLR pin function is digital I/O, MCLR internally tied to VDD
  1647                           ;	Brown-out Detect Enable bit
  1648                           ;	BOREN = OFF, BOD disabled
  1649                           ;	Code Protection bit
  1650                           ;	CP = OFF, Program Memory code protection is disabled
  1651                           ;	Data Code Protection bit
  1652                           ;	CPD = OFF, Data memory code protection is disabled
  1653     2007                     	org	8199
  1654     2007  3194               	dw	12692

Data Sizes:
    Strings     0
    Constant    0
    Data        0
    BSS         11
    Persistent  0
    Stack       0

Auto Spaces:
    Space          Size  Autos    Used
    COMMON            0      0       0
    BANK0            62     50      61

Pointer List with Targets:

    None.

Critical Paths under _main in COMMON

    None.

Critical Paths under _ISR in COMMON

    None.

Critical Paths under _main in BANK0

    _main->___lldiv
    ___lldiv->___lmul

Critical Paths under _ISR in BANK0

    _Timer1_interrupt->_ADC_StartConversion
    _ADC_interrupt->_AdcReadResult

Call Graph Tables:

 ---------------------------------------------------------------------------------
 (Depth) Function   	        Calls       Base Space   Used Autos Params    Refs
 ---------------------------------------------------------------------------------
 (0) _main                                                12    12      0     389
                                             38 BANK0     12    12      0
                        _DioPinWrite
                            _InitAll
                            ___lldiv
                             ___lmul
 ---------------------------------------------------------------------------------
 (1) ___lmul                                              13     5      8      96
                                             11 BANK0     13     5      8
 ---------------------------------------------------------------------------------
 (1) ___lldiv                                             14     6      8     164
                                             24 BANK0     14     6      8
                             ___lmul (ARG)
 ---------------------------------------------------------------------------------
 (1) _InitAll                                              0     0      0       0
 ---------------------------------------------------------------------------------
 (1) _DioPinWrite                                          3     2      1      82
                                             11 BANK0      3     2      1
 ---------------------------------------------------------------------------------
 Estimated maximum stack depth 1
 ---------------------------------------------------------------------------------
 (Depth) Function   	        Calls       Base Space   Used Autos Params    Refs
 ---------------------------------------------------------------------------------
 (2) _ISR                                                  2     2      0      29
                                              9 BANK0      2     2      0
                      _ADC_interrupt
                   _Timer1_interrupt
 ---------------------------------------------------------------------------------
 (3) _Timer1_interrupt                                     0     0      0      29
                _ADC_StartConversion
                       _NegativeEdge
 ---------------------------------------------------------------------------------
 (4) _NegativeEdge                                         0     0      0       0
 ---------------------------------------------------------------------------------
 (4) _ADC_StartConversion                                  2     2      0      29
                                              0 BANK0      2     2      0
 ---------------------------------------------------------------------------------
 (3) _ADC_interrupt                                        0     0      0       0
                      _AdcReadResult
 ---------------------------------------------------------------------------------
 (4) _AdcReadResult                                        9     7      2       0
                                              0 BANK0      9     7      2
 ---------------------------------------------------------------------------------
 Estimated maximum stack depth 4
 ---------------------------------------------------------------------------------

 Call Graph Graphs:

 _main (ROOT)
   _DioPinWrite
   _InitAll
   ___lldiv
     ___lmul (ARG)
   ___lmul

 _ISR (ROOT)
   _ADC_interrupt
     _AdcReadResult
   _Timer1_interrupt
     _ADC_StartConversion
     _NegativeEdge

Address spaces:
Name               Size   Autos  Total    Usage
BITCOMMON            0      0       0      0.0%
BITBANK0            62      0       0      0.0%
COMMON               0      0       0      0.0%
BANK0               62     50      61     98.4%
STACK                0      0       0      0.0%
DATA                 0      0      61      0.0%


Microchip Technology PIC Macro Assembler V2.50 build 20240725155939 
Symbol Table                                                                                   Mon Oct 21 04:39:17 2024

                         l61 0096                           l71 0222                  main@Counter 004E  
                         l76 01C4                          l212 01A2                          l234 010E  
                        l900 015C                          l830 0211                          l822 0208  
                        l910 019A                          l902 0165                          l840 021F  
                        l832 0215                          l824 020B                          l920 00C9  
                        l904 0169                          l842 01A5                          l834 0218  
                        l826 020C                          l930 00F7                          l922 00CD  
                        l914 00AA                          l906 0180                          l844 01AA  
                        l836 021A                          l828 020E                          l932 0100  
                        l924 00D6                          l916 00BB                          l908 0189  
                        l940 001B                          l846 01B6                          l838 021E  
                        l926 00E8                          l918 00BE                          l934 0106  
                        l950 00A3                          l942 0021                          l848 01C2  
                        l928 00F6                          l952 00A6                          l944 0027  
                        l946 0071                          l938 001A                          l948 009E  
                        u520 019A                          u600 0021                          u521 0199  
                        u505 0182                          u601 0020                          u370 01AA  
                        u530 00BB                          u610 0027                          u371 01A9  
                        u531 00BA                          u515 018A                          u611 0026  
                        u620 0096                          _ISR 0223                          u550 00CD  
                        u630 009E                          u551 00CC                          u631 009D  
                        u384 01B0                          u480 0169                          u640 00A3  
                        u385 01AE                          u545 00C0                          u481 0168  
                        u641 00A2                          u625 0089                          u394 01BC  
                        u570 00E8                          u626 008A                          u395 01BA  
                        u571 00E7                          u491 0172                          u627 008F  
                        u492 0179                          u628 0090                          u565 00CF  
                        u493 0180                          u629 0095                          u590 0106  
                        u591 0105                          u575 00E4                          u585 00F8  
                        u677 0075                          _WPU 0095                         ?_ISR 0020  
                       _GPIO 0005                         _PIE1 008C                         _PIR1 000C  
                       i1l82 0207                         i1l91 0234                         i1l94 0125  
                       i1l79 024B                         i1l87 022C                         _TMR1 000E  
            ??_AdcReadResult 0022                         _flag 0056                         _main 001A  
                       btemp 005E                         start 000B                ?_NegativeEdge 0020  
            __end_of_InitAll 0223                        ??_ISR 0029                        ?_main 0020  
                      _ANSEL 009F              __end_of___lldiv 010F                        _T1CON 0010  
                      i1l100 015B                        i1l110 0254                        i1l112 0256  
                      i1l107 01E6                        i1l810 023D                        i1l812 024A  
                      i1l820 0252                        i1l814 01E7                        i1l818 024C  
                      i1l850 010F                        i1l860 011F                        i1l852 0112  
                      i1l870 0134                        i1l862 0121                        i1l854 0116  
                      i1l880 0150                        i1l872 013D                        i1l864 0127  
                      i1l856 0117                        i1l960 0230                        i1l890 01D0  
                      i1l882 0151                        i1l874 013E                        i1l866 0129  
                      i1l858 011D                        i1l962 0231                        i1l954 0223  
                      i1l892 01D7                        i1l884 015A                        i1l876 0144  
                      i1l868 012B                        i1l956 0227                        i1l894 01DC  
                      i1l886 01C5                        i1l878 014D                        i1l958 0228  
                      i1l896 01E3                        i1l888 01CC                        i1l898 01E4  
                      u40_20 011D                        u40_21 011C                        u41_20 0134  
                      u41_21 0133                        u42_20 013D                        u42_21 013C  
                      u34_25 0242                        u43_20 0144                        u43_21 0143  
                      u35_25 01EC                        u36_20 0252                        u44_20 014D  
                      u36_21 0251                        u44_21 014C                        u45_20 015A  
                      u45_21 0159                        u46_20 01CC                        u46_21 01CB  
                      u47_20 01DC                        u47_21 01DB                        u65_20 0227  
                      u65_21 0226                        u66_20 0230                        u66_21 022F  
        ___lmul@multiplicand 002F     __end_of_Timer1_interrupt 015C                        pclath 000A  
                _DioPinWrite 01A3                        status 0003                        wtemp0 005E  
             ??_NegativeEdge 0000              __initialization 000C                 __end_of_main 00AA  
                     ??_main 0046   ADC_StartConversion@channel 0021                       _ADCON0 001F  
                     _ADRESH 001E                       _ADRESL 009E                       _INTCON 000B  
                 _PotInValue 005B                       _TRISIO 0085                    ??_InitAll 0000  
                _DispenserOn 0058                       ___lmul 015C                    ??___lldiv 0040  
                     saved_w 005E      __end_of__initialization 0018               __pcstackCOMMON 0000  
       __end_of_NegativeEdge 0257                   __pbssBANK0 0052                   __pmaintext 001A  
                    ?___lmul 002B                   __pintentry 0004            _LastSensorInValue 0052  
             ___lmul@product 0034            ?_Timer1_interrupt 0020           ??_Timer1_interrupt 0000  
               ?_DioPinWrite 002B        __end_of_AdcReadResult 0208                      _InitAll 0208  
                  _ADCStatus 0059                      ___lldiv 00AA                      __ptext1 015C  
                    __ptext2 00AA                      __ptext3 0208                      __ptext4 01A3  
                    __ptext5 0223                      __ptext6 010F                      __ptext7 024C  
                    __ptext8 023B                      __ptext9 01C5                _ADC_interrupt 01C5  
       end_of_initialization 0018              ___lldiv@divisor 0038              ___lldiv@counter 0045  
             ?_ADC_interrupt 0020          _ADC_StartConversion 023B                 _NegativeEdge 024C  
       ?_ADC_StartConversion 0020               __end_of___lmul 01A3          start_initialization 000C  
                __end_of_ISR 023B        ??_ADC_StartConversion 0020             DioPinWrite@state 002B  
                   ??___lmul 0033              ??_ADC_interrupt 0000         DioPinWrite@pinNumber 002D  
                  ___latbits 0000                __pcstackBANK0 0020                _SensorInValue 0054  
                   ?_InitAll 0020                     ?___lldiv 0038              _DebounceCounter 0057  
          interrupt_function 0004                     _DioState 005A            ___lmul@multiplier 002B  
                   _main$695 004A                     __ptext10 01E7                _AdcReadResult 01E7  
           _Timer1_interrupt 010F                     intlevel1 0000                ??_DioPinWrite 002C  
__end_of_ADC_StartConversion 024C             ___lldiv@dividend 003C               ?_AdcReadResult 0020  
      __end_of_ADC_interrupt 01E7                   _OPTION_REG 0081             ___lldiv@quotient 0041  
        __end_of_DioPinWrite 01C5  
